Certificate:
    Data:
        Version: 3 (0x2)
        Serial Number: 1 (0x1)
    Signature Algorithm: sha256WithRSAEncryption
        Issuer: C=CN, ST=BeiJing, L=BeiJing, O=InfoSec, OU=R&D, CN=ca/emailAddress=lijk@infosec.com.cn
        Validity
            Not Before: Dec 18 06:26:27 2015 GMT
            Not After : Dec 15 06:26:27 2025 GMT
        Subject: C=CN, ST=BeiJing, L=BeiJing, O=InfoSec, OU=R&D, CN=client/emailAddress=lijk@infosec.com.cn
        Subject Public Key Info:
            Public Key Algorithm: rsaEncryption
                Public-Key: (2048 bit)
                Modulus:
                    00:e9:b5:e8:1d:b3:1b:55:26:ef:4f:0f:79:30:bd:
                    51:c8:ce:51:fe:31:00:e4:fe:1e:7d:81:31:7a:de:
                    b0:9e:d8:ec:f9:3b:08:b6:74:d6:26:fe:b6:3d:01:
                    b5:57:f8:4f:59:a5:6b:c3:0d:a9:53:12:ad:87:8f:
                    1a:b5:d6:09:8b:fa:dd:42:e0:a9:d8:da:7b:c9:e9:
                    30:95:1f:89:2d:4c:f1:ed:74:67:91:1c:2f:60:36:
                    0c:5c:18:3f:a4:b7:2a:1b:cb:f4:03:48:15:88:28:
                    9b:e4:c3:d3:eb:53:28:fc:99:40:16:9d:c4:d7:31:
                    da:b8:2f:22:c3:05:27:fc:9f:3e:4e:20:28:28:2b:
                    b9:6f:26:0c:c6:ef:63:17:cc:d7:bc:f3:df:4a:08:
                    90:ef:4f:91:b1:fc:fe:47:eb:0d:65:22:06:75:08:
                    9a:7a:1a:05:3b:48:4c:e2:c8:66:ee:b4:72:06:68:
                    41:52:b4:af:ff:45:aa:e9:db:0c:eb:c9:18:d1:00:
                    13:20:f0:e7:3e:14:b3:0d:8f:b5:68:ee:72:4e:69:
                    1a:16:a6:e5:32:ae:2e:33:56:26:43:85:64:91:0e:
                    7d:08:b7:e7:5f:51:55:3f:2c:0e:57:78:ae:77:05:
                    24:93:9f:dd:64:e5:65:84:6a:b0:5a:f8:a7:7a:7c:
                    58:7d
                Exponent: 65537 (0x10001)
        X509v3 extensions:
            X509v3 Basic Constraints: 
                CA:FALSE
            X509v3 Subject Key Identifier: 
                EF:65:7E:B4:6F:F9:36:5F:01:D4:26:86:35:86:FA:33:39:30:03:77
            X509v3 Authority Key Identifier: 
                keyid:0B:91:1E:6E:7B:B2:47:11:4C:D0:37:E0:F1:EB:8F:2B:07:B3:D0:89
                DirName:/C=CN/ST=BeiJing/L=BeiJing/O=InfoSec/OU=R&D/CN=ca/emailAddress=lijk@infosec.com.cn
                serial:C7:0B:5C:B3:01:A3:8F:44

            X509v3 Extended Key Usage: 
                TLS Web Client Authentication
            X509v3 Key Usage: 
                Digital Signature
    Signature Algorithm: sha256WithRSAEncryption
         13:cc:09:43:8e:2a:14:df:3a:29:c0:48:de:77:12:87:8f:77:
         8c:cf:f4:7a:9c:17:06:5a:b3:2b:95:8f:3e:3a:52:20:e3:4f:
         3e:31:a7:e0:e5:97:32:4d:65:12:60:b7:73:2d:d0:a3:77:d2:
         b9:45:cd:c4:b9:92:93:08:88:86:14:72:59:e4:73:2f:02:ee:
         fb:26:68:27:5b:9e:8a:24:a4:9f:95:01:ef:c1:3b:37:70:ac:
         e8:e5:28:40:b0:18:d4:c2:a4:c6:42:e2:bb:3e:cd:c2:a6:b0:
         38:36:d5:c0:01:51:9c:60:bf:f7:f1:43:43:d0:90:9d:ad:d2:
         9b:a8:69:8a:c4:77:a6:88:da:85:48:6c:55:4c:8a:01:c9:05:
         f5:bf:58:d9:29:70:07:29:59:44:d8:b8:5b:33:97:1c:fd:46:
         98:91:1d:e1:cb:57:bc:d0:31:9e:e1:ee:eb:f7:95:28:dc:66:
         a8:02:7c:39:06:b4:32:40:a5:31:14:7f:8f:3b:2b:2b:2b:d6:
         ca:f6:ed:08:47:37:66:10:c2:3e:a8:f5:1e:99:f7:60:a0:19:
         58:85:40:b9:60:c5:e4:36:3f:07:70:c3:29:78:65:fe:e8:87:
         51:0f:7b:d3:85:8a:7d:e1:81:64:8c:eb:43:ee:e5:dd:d3:d2:
         36:ee:78:3f
-----BEGIN CERTIFICATE-----
MIIEkTCCA3mgAwIBAgIBATANBgkqhkiG9w0BAQsFADCBgjELMAkGA1UEBhMCQ04x
EDAOBgNVBAgTB0JlaUppbmcxEDAOBgNVBAcTB0JlaUppbmcxEDAOBgNVBAoTB0lu
Zm9TZWMxDDAKBgNVBAsUA1ImRDELMAkGA1UEAxMCY2ExIjAgBgkqhkiG9w0BCQEW
E2xpamtAaW5mb3NlYy5jb20uY24wHhcNMTUxMjE4MDYyNjI3WhcNMjUxMjE1MDYy
NjI3WjCBhjELMAkGA1UEBhMCQ04xEDAOBgNVBAgTB0JlaUppbmcxEDAOBgNVBAcT
B0JlaUppbmcxEDAOBgNVBAoTB0luZm9TZWMxDDAKBgNVBAsUA1ImRDEPMA0GA1UE
AxMGY2xpZW50MSIwIAYJKoZIhvcNAQkBFhNsaWprQGluZm9zZWMuY29tLmNuMIIB
IjANBgkqhkiG9w0BAQEFAAOCAQ8AMIIBCgKCAQEA6bXoHbMbVSbvTw95ML1RyM5R
/jEA5P4efYExet6wntjs+TsItnTWJv62PQG1V/hPWaVrww2pUxKth48atdYJi/rd
QuCp2Np7yekwlR+JLUzx7XRnkRwvYDYMXBg/pLcqG8v0A0gViCib5MPT61Mo/JlA
Fp3E1zHauC8iwwUn/J8+TiAoKCu5byYMxu9jF8zXvPPfSgiQ70+Rsfz+R+sNZSIG
dQiaehoFO0hM4shm7rRyBmhBUrSv/0Wq6dsM68kY0QATIPDnPhSzDY+1aO5yTmka
FqblMq4uM1YmQ4VkkQ59CLfnX1FVPywOV3iudwUkk5/dZOVlhGqwWvinenxYfQID
AQABo4IBCjCCAQYwCQYDVR0TBAIwADAdBgNVHQ4EFgQU72V+tG/5Nl8B1CaGNYb6
MzkwA3cwgbcGA1UdIwSBrzCBrIAUC5EebnuyRxFM0Dfg8euPKwez0ImhgYikgYUw
gYIxCzAJBgNVBAYTAkNOMRAwDgYDVQQIEwdCZWlKaW5nMRAwDgYDVQQHEwdCZWlK
aW5nMRAwDgYDVQQKEwdJbmZvU2VjMQwwCgYDVQQLFANSJkQxCzAJBgNVBAMTAmNh
MSIwIAYJKoZIhvcNAQkBFhNsaWprQGluZm9zZWMuY29tLmNuggkAxwtcswGjj0Qw
EwYDVR0lBAwwCgYIKwYBBQUHAwIwCwYDVR0PBAQDAgeAMA0GCSqGSIb3DQEBCwUA
A4IBAQATzAlDjioU3zopwEjedxKHj3eMz/R6nBcGWrMrlY8+OlIg408+Mafg5Zcy
TWUSYLdzLdCjd9K5Rc3EuZKTCIiGFHJZ5HMvAu77JmgnW56KJKSflQHvwTs3cKzo
5ShAsBjUwqTGQuK7Ps3CprA4NtXAAVGcYL/38UND0JCdrdKbqGmKxHemiNqFSGxV
TIoByQX1v1jZKXAHKVlE2LhbM5cc/UaYkR3hy1e80DGe4e7r95Uo3GaoAnw5BrQy
QKUxFH+POysrK9bK9u0IRzdmEMI+qPUemfdgoBlYhUC5YMXkNj8HcMMpeGX+6IdR
D3vThYp94YFkjOtD7uXd09I27ng/
-----END CERTIFICATE-----
