Certificate:
    Data:
        Version: 3 (0x2)
        Serial Number: 2 (0x2)
    Signature Algorithm: sha256WithRSAEncryption
        Issuer: C=CN, ST=BeiJing, L=BeiJing, O=InfoSec, OU=R&D, CN=ca/emailAddress=lijk@infosec.com.cn
        Validity
            Not Before: Dec 18 06:26:42 2015 GMT
            Not After : Dec 15 06:26:42 2025 GMT
        Subject: C=CN, ST=BeiJing, L=BeiJing, O=InfoSec, OU=R&D, CN=server/emailAddress=lijk@infosec.com.cn
        Subject Public Key Info:
            Public Key Algorithm: rsaEncryption
                Public-Key: (2048 bit)
                Modulus:
                    00:be:28:d8:7b:e9:05:fb:09:e6:9f:70:13:56:f6:
                    30:87:da:36:72:1b:48:26:bb:80:82:0e:19:ab:14:
                    f5:20:56:85:06:d9:36:54:42:6d:f8:62:dc:5b:4d:
                    f2:6f:62:b0:4f:04:8d:47:51:79:b7:32:00:f4:ea:
                    12:67:41:8a:69:15:d4:b4:86:61:73:5c:31:98:7b:
                    77:d2:21:42:f2:7f:77:7f:01:e4:fd:d4:ce:39:57:
                    48:df:a2:88:9a:ce:d2:a3:d6:73:a1:9c:ed:7a:76:
                    73:2c:70:d2:94:81:da:27:79:9d:ae:74:08:81:0c:
                    31:82:00:27:db:e3:7d:86:0e:c6:dd:88:c1:34:11:
                    5a:c5:df:52:30:bc:0b:c1:97:ea:ab:26:f6:55:c2:
                    79:d9:22:68:a4:b8:fa:d0:dc:df:33:47:99:9d:18:
                    15:27:ef:dc:1d:35:ae:2f:fe:6a:4e:81:4b:9a:f0:
                    4f:03:53:8f:a6:2e:0a:ea:b3:77:6c:8b:b8:59:13:
                    a2:db:6b:3d:06:47:77:e2:c3:77:a2:10:e3:f9:71:
                    1d:37:8d:8f:4b:05:9a:69:e8:14:0c:6b:95:f9:b6:
                    01:5e:ec:c2:af:34:e6:d1:8a:e4:de:3b:af:54:db:
                    e2:eb:21:51:2e:03:3b:fd:12:b3:48:c1:2d:92:09:
                    7e:db
                Exponent: 65537 (0x10001)
        X509v3 extensions:
            X509v3 Basic Constraints: 
                CA:FALSE
            X509v3 Subject Key Identifier: 
                A4:37:BD:9A:4F:8A:4F:0C:5D:02:82:60:91:54:2E:D9:69:B3:31:C5
            X509v3 Authority Key Identifier: 
                keyid:0B:91:1E:6E:7B:B2:47:11:4C:D0:37:E0:F1:EB:8F:2B:07:B3:D0:89
                DirName:/C=CN/ST=BeiJing/L=BeiJing/O=InfoSec/OU=R&D/CN=ca/emailAddress=lijk@infosec.com.cn
                serial:C7:0B:5C:B3:01:A3:8F:44

            X509v3 Extended Key Usage: 
                TLS Web Server Authentication
            X509v3 Key Usage: 
                Digital Signature, Key Encipherment
    Signature Algorithm: sha256WithRSAEncryption
         7b:31:17:58:c7:bb:78:45:4e:6d:d9:3c:e1:56:d0:1d:4f:da:
         74:6b:4a:11:63:42:0a:f2:f9:b6:7f:63:b3:6e:f4:75:1e:24:
         3e:9c:04:f9:61:d3:b9:5b:e3:0c:5f:ff:06:10:e4:fb:5c:27:
         e6:56:b5:85:76:fe:02:82:9d:ff:70:2e:c3:ef:f1:29:97:10:
         8f:5a:a6:95:b1:06:04:6c:99:e6:b4:10:a1:41:c6:36:47:f5:
         19:69:1a:ab:0c:db:99:9f:a1:cb:e0:1f:9c:17:1f:4b:e3:ff:
         4a:f7:5d:c9:9e:5b:7c:6b:55:26:4a:a9:71:a2:1e:cd:fc:ff:
         6c:64:77:24:8b:38:88:96:61:74:6a:39:94:91:9a:70:02:0a:
         fe:ab:2a:9c:93:14:31:87:b1:9d:fe:16:05:13:0f:e0:bc:8e:
         e0:59:eb:34:1f:a1:1d:89:59:11:ac:35:42:14:aa:4c:f8:91:
         15:3b:29:57:12:e5:9d:72:b7:06:c8:78:ba:23:f0:d0:ac:c3:
         78:99:80:02:ce:17:5f:c1:3d:c8:b6:3a:ec:7b:14:61:68:d2:
         2d:13:b6:4b:5e:55:eb:d6:ae:f8:fc:0f:6c:5d:7e:30:fb:43:
         d3:db:ec:e2:37:26:ae:d9:d5:61:66:67:81:3d:c0:1e:90:b9:
         2c:cc:36:1e
-----BEGIN CERTIFICATE-----
MIIEkTCCA3mgAwIBAgIBAjANBgkqhkiG9w0BAQsFADCBgjELMAkGA1UEBhMCQ04x
EDAOBgNVBAgTB0JlaUppbmcxEDAOBgNVBAcTB0JlaUppbmcxEDAOBgNVBAoTB0lu
Zm9TZWMxDDAKBgNVBAsUA1ImRDELMAkGA1UEAxMCY2ExIjAgBgkqhkiG9w0BCQEW
E2xpamtAaW5mb3NlYy5jb20uY24wHhcNMTUxMjE4MDYyNjQyWhcNMjUxMjE1MDYy
NjQyWjCBhjELMAkGA1UEBhMCQ04xEDAOBgNVBAgTB0JlaUppbmcxEDAOBgNVBAcT
B0JlaUppbmcxEDAOBgNVBAoTB0luZm9TZWMxDDAKBgNVBAsUA1ImRDEPMA0GA1UE
AxMGc2VydmVyMSIwIAYJKoZIhvcNAQkBFhNsaWprQGluZm9zZWMuY29tLmNuMIIB
IjANBgkqhkiG9w0BAQEFAAOCAQ8AMIIBCgKCAQEAvijYe+kF+wnmn3ATVvYwh9o2
chtIJruAgg4ZqxT1IFaFBtk2VEJt+GLcW03yb2KwTwSNR1F5tzIA9OoSZ0GKaRXU
tIZhc1wxmHt30iFC8n93fwHk/dTOOVdI36KIms7So9ZzoZztenZzLHDSlIHaJ3md
rnQIgQwxggAn2+N9hg7G3YjBNBFaxd9SMLwLwZfqqyb2VcJ52SJopLj60NzfM0eZ
nRgVJ+/cHTWuL/5qToFLmvBPA1OPpi4K6rN3bIu4WROi22s9Bkd34sN3ohDj+XEd
N42PSwWaaegUDGuV+bYBXuzCrzTm0Yrk3juvVNvi6yFRLgM7/RKzSMEtkgl+2wID
AQABo4IBCjCCAQYwCQYDVR0TBAIwADAdBgNVHQ4EFgQUpDe9mk+KTwxdAoJgkVQu
2WmzMcUwgbcGA1UdIwSBrzCBrIAUC5EebnuyRxFM0Dfg8euPKwez0ImhgYikgYUw
gYIxCzAJBgNVBAYTAkNOMRAwDgYDVQQIEwdCZWlKaW5nMRAwDgYDVQQHEwdCZWlK
aW5nMRAwDgYDVQQKEwdJbmZvU2VjMQwwCgYDVQQLFANSJkQxCzAJBgNVBAMTAmNh
MSIwIAYJKoZIhvcNAQkBFhNsaWprQGluZm9zZWMuY29tLmNuggkAxwtcswGjj0Qw
EwYDVR0lBAwwCgYIKwYBBQUHAwEwCwYDVR0PBAQDAgWgMA0GCSqGSIb3DQEBCwUA
A4IBAQB7MRdYx7t4RU5t2TzhVtAdT9p0a0oRY0IK8vm2f2OzbvR1HiQ+nAT5YdO5
W+MMX/8GEOT7XCfmVrWFdv4Cgp3/cC7D7/EplxCPWqaVsQYEbJnmtBChQcY2R/UZ
aRqrDNuZn6HL4B+cFx9L4/9K913Jnlt8a1UmSqlxoh7N/P9sZHckiziIlmF0ajmU
kZpwAgr+qyqckxQxh7Gd/hYFEw/gvI7gWes0H6EdiVkRrDVCFKpM+JEVOylXEuWd
crcGyHi6I/DQrMN4mYACzhdfwT3ItjrsexRhaNItE7ZLXlXr1q74/A9sXX4w+0PT
2+ziNyau2dVhZmeBPcAekLkszDYe
-----END CERTIFICATE-----
